target datalayout = "e-m:e-p270:32:32-p271:32:32-p272:64:64-i64:64-i128:128-f80:128-n8:16:32:64-S128"
target triple = "x86_64-pc-linux-gnu"

; Function Attrs: nounwind uwtable
define zeroext i16 @ttUSHORT(ptr noundef %0) #0 {
  %2 = alloca ptr, align 8
  store ptr %0, ptr %2, align 8, !tbaa !25
  %3 = load ptr, ptr %2, align 8, !tbaa !25
  %4 = getelementptr inbounds i8, ptr %3, i64 0
  %5 = load i8, ptr %4, align 1, !tbaa !13
  %6 = zext i8 %5 to i32
  %7 = mul nsw i32 %6, 256
  %8 = load ptr, ptr %2, align 8, !tbaa !25
  %9 = getelementptr inbounds i8, ptr %8, i64 1
  %10 = load i8, ptr %9, align 1, !tbaa !13
  %11 = zext i8 %10 to i32
  %12 = add nsw i32 %7, %11
  %13 = trunc i32 %12 to i16
  ret i16 %13
}

; Function Attrs: nounwind uwtable
define i32 @stbtt__GetCoverageIndex(ptr noundef %0, i32 noundef %1) #0 {
  %3 = alloca i32, align 4
  %4 = alloca ptr, align 8
  %5 = alloca i32, align 4
  %6 = alloca i16, align 2
  %7 = alloca i16, align 2
  %8 = alloca i32, align 4
  %9 = alloca i32, align 4
  %10 = alloca i32, align 4
  %11 = alloca i32, align 4
  %12 = alloca i32, align 4
  %13 = alloca ptr, align 8
  %14 = alloca i16, align 2
  %15 = alloca i32, align 4
  %16 = alloca i16, align 2
  %17 = alloca ptr, align 8
  %18 = alloca i32, align 4
  %19 = alloca i32, align 4
  %20 = alloca i32, align 4
  %21 = alloca i32, align 4
  %22 = alloca i32, align 4
  %23 = alloca i32, align 4
  %24 = alloca ptr, align 8
  %25 = alloca i16, align 2
  store ptr %0, ptr %4, align 8, !tbaa !25
  store i32 %1, ptr %5, align 4, !tbaa !14
  call void @llvm.lifetime.start.p0(i64 2, ptr %6) #8
  %26 = load ptr, ptr %4, align 8, !tbaa !25
  %27 = call zeroext i16 @ttUSHORT(ptr noundef %26)
  store i16 %27, ptr %6, align 2, !tbaa !45
  %28 = load i16, ptr %6, align 2, !tbaa !45
  %29 = zext i16 %28 to i32
  switch i32 %29, label %142 [
    i32 1, label %30
    i32 2, label %80
  ]

30:                                               ; preds = %2
  call void @llvm.lifetime.start.p0(i64 2, ptr %7) #8
  %31 = load ptr, ptr %4, align 8, !tbaa !25
  %32 = getelementptr inbounds i8, ptr %31, i64 2
  %33 = call zeroext i16 @ttUSHORT(ptr noundef %32)
  store i16 %33, ptr %7, align 2, !tbaa !45
  call void @llvm.lifetime.start.p0(i64 4, ptr %8) #8
  store i32 0, ptr %8, align 4, !tbaa !14
  call void @llvm.lifetime.start.p0(i64 4, ptr %9) #8
  %34 = load i16, ptr %7, align 2, !tbaa !45
  %35 = zext i16 %34 to i32
  %36 = sub nsw i32 %35, 1
  store i32 %36, ptr %9, align 4, !tbaa !14
  call void @llvm.lifetime.start.p0(i64 4, ptr %10) #8
  call void @llvm.lifetime.start.p0(i64 4, ptr %11) #8
  call void @llvm.lifetime.start.p0(i64 4, ptr %12) #8
  %37 = load i32, ptr %5, align 4, !tbaa !14
  store i32 %37, ptr %12, align 4, !tbaa !14
  br label %38

38:                                               ; preds = %76, %30
  %39 = load i32, ptr %8, align 4, !tbaa !14
  %40 = load i32, ptr %9, align 4, !tbaa !14
  %41 = icmp sle i32 %39, %40
  br i1 %41, label %42, label %77

42:                                               ; preds = %38
  call void @llvm.lifetime.start.p0(i64 8, ptr %13) #8
  %43 = load ptr, ptr %4, align 8, !tbaa !25
  %44 = getelementptr inbounds i8, ptr %43, i64 4
  store ptr %44, ptr %13, align 8, !tbaa !25
  call void @llvm.lifetime.start.p0(i64 2, ptr %14) #8
  %45 = load i32, ptr %8, align 4, !tbaa !14
  %46 = load i32, ptr %9, align 4, !tbaa !14
  %47 = add nsw i32 %45, %46
  %48 = ashr i32 %47, 1
  store i32 %48, ptr %10, align 4, !tbaa !14
  %49 = load ptr, ptr %13, align 8, !tbaa !25
  %50 = load i32, ptr %10, align 4, !tbaa !14
  %51 = mul nsw i32 2, %50
  %52 = sext i32 %51 to i64
  %53 = getelementptr inbounds i8, ptr %49, i64 %52
  %54 = call zeroext i16 @ttUSHORT(ptr noundef %53)
  store i16 %54, ptr %14, align 2, !tbaa !45
  %55 = load i16, ptr %14, align 2, !tbaa !45
  %56 = zext i16 %55 to i32
  store i32 %56, ptr %11, align 4, !tbaa !14
  %57 = load i32, ptr %12, align 4, !tbaa !14
  %58 = load i32, ptr %11, align 4, !tbaa !14
  %59 = icmp slt i32 %57, %58
  br i1 %59, label %60, label %63

60:                                               ; preds = %42
  %61 = load i32, ptr %10, align 4, !tbaa !14
  %62 = sub nsw i32 %61, 1
  store i32 %62, ptr %9, align 4, !tbaa !14
  br label %73

63:                                               ; preds = %42
  %64 = load i32, ptr %12, align 4, !tbaa !14
  %65 = load i32, ptr %11, align 4, !tbaa !14
  %66 = icmp sgt i32 %64, %65
  br i1 %66, label %67, label %70

67:                                               ; preds = %63
  %68 = load i32, ptr %10, align 4, !tbaa !14
  %69 = add nsw i32 %68, 1
  store i32 %69, ptr %8, align 4, !tbaa !14
  br label %72

70:                                               ; preds = %63
  %71 = load i32, ptr %10, align 4, !tbaa !14
  store i32 %71, ptr %3, align 4
  store i32 1, ptr %15, align 4
  br label %74

72:                                               ; preds = %67
  br label %73

73:                                               ; preds = %72, %60
  store i32 0, ptr %15, align 4
  br label %74

74:                                               ; preds = %73, %70
  call void @llvm.lifetime.end.p0(i64 2, ptr %14) #8
  call void @llvm.lifetime.end.p0(i64 8, ptr %13) #8
  %75 = load i32, ptr %15, align 4
  switch i32 %75, label %78 [
    i32 0, label %76
  ]

76:                                               ; preds = %74
  br label %38, !llvm.loop !95

77:                                               ; preds = %38
  store i32 2, ptr %15, align 4
  br label %78

78:                                               ; preds = %77, %74
  call void @llvm.lifetime.end.p0(i64 4, ptr %12) #8
  call void @llvm.lifetime.end.p0(i64 4, ptr %11) #8
  call void @llvm.lifetime.end.p0(i64 4, ptr %10) #8
  call void @llvm.lifetime.end.p0(i64 4, ptr %9) #8
  call void @llvm.lifetime.end.p0(i64 4, ptr %8) #8
  call void @llvm.lifetime.end.p0(i64 2, ptr %7) #8
  %79 = load i32, ptr %15, align 4
  switch i32 %79, label %144 [
    i32 2, label %143
  ]

80:                                               ; preds = %2
  call void @llvm.lifetime.start.p0(i64 2, ptr %16) #8
  %81 = load ptr, ptr %4, align 8, !tbaa !25
  %82 = getelementptr inbounds i8, ptr %81, i64 2
  %83 = call zeroext i16 @ttUSHORT(ptr noundef %82)
  store i16 %83, ptr %16, align 2, !tbaa !45
  call void @llvm.lifetime.start.p0(i64 8, ptr %17) #8
  %84 = load ptr, ptr %4, align 8, !tbaa !25
  %85 = getelementptr inbounds i8, ptr %84, i64 4
  store ptr %85, ptr %17, align 8, !tbaa !25
  call void @llvm.lifetime.start.p0(i64 4, ptr %18) #8
  store i32 0, ptr %18, align 4, !tbaa !14
  call void @llvm.lifetime.start.p0(i64 4, ptr %19) #8
  %86 = load i16, ptr %16, align 2, !tbaa !45
  %87 = zext i16 %86 to i32
  %88 = sub nsw i32 %87, 1
  store i32 %88, ptr %19, align 4, !tbaa !14
  call void @llvm.lifetime.start.p0(i64 4, ptr %20) #8
  call void @llvm.lifetime.start.p0(i64 4, ptr %21) #8
  call void @llvm.lifetime.start.p0(i64 4, ptr %22) #8
  call void @llvm.lifetime.start.p0(i64 4, ptr %23) #8
  %89 = load i32, ptr %5, align 4, !tbaa !14
  store i32 %89, ptr %23, align 4, !tbaa !14
  br label %90

90:                                               ; preds = %138, %80
  %91 = load i32, ptr %18, align 4, !tbaa !14
  %92 = load i32, ptr %19, align 4, !tbaa !14
  %93 = icmp sle i32 %91, %92
  br i1 %93, label %94, label %139

94:                                               ; preds = %90
  call void @llvm.lifetime.start.p0(i64 8, ptr %24) #8
  %95 = load i32, ptr %18, align 4, !tbaa !14
  %96 = load i32, ptr %19, align 4, !tbaa !14
  %97 = add nsw i32 %95, %96
  %98 = ashr i32 %97, 1
  store i32 %98, ptr %20, align 4, !tbaa !14
  %99 = load ptr, ptr %17, align 8, !tbaa !25
  %100 = load i32, ptr %20, align 4, !tbaa !14
  %101 = mul nsw i32 6, %100
  %102 = sext i32 %101 to i64
  %103 = getelementptr inbounds i8, ptr %99, i64 %102
  store ptr %103, ptr %24, align 8, !tbaa !25
  %104 = load ptr, ptr %24, align 8, !tbaa !25
  %105 = call zeroext i16 @ttUSHORT(ptr noundef %104)
  %106 = zext i16 %105 to i32
  store i32 %106, ptr %21, align 4, !tbaa !14
  %107 = load ptr, ptr %24, align 8, !tbaa !25
  %108 = getelementptr inbounds i8, ptr %107, i64 2
  %109 = call zeroext i16 @ttUSHORT(ptr noundef %108)
  %110 = zext i16 %109 to i32
  store i32 %110, ptr %22, align 4, !tbaa !14
  %111 = load i32, ptr %23, align 4, !tbaa !14
  %112 = load i32, ptr %21, align 4, !tbaa !14
  %113 = icmp slt i32 %111, %112
  br i1 %113, label %114, label %117

114:                                              ; preds = %94
  %115 = load i32, ptr %20, align 4, !tbaa !14
  %116 = sub nsw i32 %115, 1
  store i32 %116, ptr %19, align 4, !tbaa !14
  br label %135

117:                                              ; preds = %94
  %118 = load i32, ptr %23, align 4, !tbaa !14
  %119 = load i32, ptr %22, align 4, !tbaa !14
  %120 = icmp sgt i32 %118, %119
  br i1 %120, label %121, label %124

121:                                              ; preds = %117
  %122 = load i32, ptr %20, align 4, !tbaa !14
  %123 = add nsw i32 %122, 1
  store i32 %123, ptr %18, align 4, !tbaa !14
  br label %134

124:                                              ; preds = %117
  call void @llvm.lifetime.start.p0(i64 2, ptr %25) #8
  %125 = load ptr, ptr %24, align 8, !tbaa !25
  %126 = getelementptr inbounds i8, ptr %125, i64 4
  %127 = call zeroext i16 @ttUSHORT(ptr noundef %126)
  store i16 %127, ptr %25, align 2, !tbaa !45
  %128 = load i16, ptr %25, align 2, !tbaa !45
  %129 = zext i16 %128 to i32
  %130 = load i32, ptr %5, align 4, !tbaa !14
  %131 = add nsw i32 %129, %130
  %132 = load i32, ptr %21, align 4, !tbaa !14
  %133 = sub nsw i32 %131, %132
  store i32 %133, ptr %3, align 4
  store i32 1, ptr %15, align 4
  call void @llvm.lifetime.end.p0(i64 2, ptr %25) #8
  br label %136

134:                                              ; preds = %121
  br label %135

135:                                              ; preds = %134, %114
  store i32 0, ptr %15, align 4
  br label %136

136:                                              ; preds = %135, %124
  call void @llvm.lifetime.end.p0(i64 8, ptr %24) #8
  %137 = load i32, ptr %15, align 4
  switch i32 %137, label %140 [
    i32 0, label %138
  ]

138:                                              ; preds = %136
  br label %90, !llvm.loop !96

139:                                              ; preds = %90
  store i32 2, ptr %15, align 4
  br label %140

140:                                              ; preds = %139, %136
  call void @llvm.lifetime.end.p0(i64 4, ptr %23) #8
  call void @llvm.lifetime.end.p0(i64 4, ptr %22) #8
  call void @llvm.lifetime.end.p0(i64 4, ptr %21) #8
  call void @llvm.lifetime.end.p0(i64 4, ptr %20) #8
  call void @llvm.lifetime.end.p0(i64 4, ptr %19) #8
  call void @llvm.lifetime.end.p0(i64 4, ptr %18) #8
  call void @llvm.lifetime.end.p0(i64 8, ptr %17) #8
  call void @llvm.lifetime.end.p0(i64 2, ptr %16) #8
  %141 = load i32, ptr %15, align 4
  switch i32 %141, label %144 [
    i32 2, label %143
  ]

142:                                              ; preds = %2
  store i32 -1, ptr %3, align 4
  store i32 1, ptr %15, align 4
  br label %144

143:                                              ; preds = %140, %78
  store i32 -1, ptr %3, align 4
  store i32 1, ptr %15, align 4
  br label %144

144:                                              ; preds = %143, %142, %140, %78
  call void @llvm.lifetime.end.p0(i64 2, ptr %6) #8
  %145 = load i32, ptr %3, align 4
  ret i32 %145
}