; Function Attrs: nofree norecurse nosync nounwind memory(argmem: read) uwtable
define range(i32 -1073741824, 1073741824) i32 @stbtt__GetCoverageIndex(ptr noundef readonly captures(none) %0, i32 noundef %1) local_unnamed_addr #7 {
  %3 = load i8, ptr %0, align 1, !tbaa !12
  %4 = zext i8 %3 to i16
  %5 = shl nuw i16 %4, 8
  %6 = getelementptr inbounds nuw i8, ptr %0, i64 1
  %7 = load i8, ptr %6, align 1, !tbaa !12
  %8 = zext i8 %7 to i16
  %9 = or disjoint i16 %5, %8
  switch i16 %9, label %.thread74 [
    i16 1, label %10
    i16 2, label %42
  ]

10:                                               ; preds = %2
  %11 = getelementptr inbounds nuw i8, ptr %0, i64 2
  %12 = load i8, ptr %11, align 1, !tbaa !12
  %13 = zext i8 %12 to i32
  %14 = shl nuw nsw i32 %13, 8
  %15 = getelementptr inbounds nuw i8, ptr %0, i64 3
  %16 = load i8, ptr %15, align 1, !tbaa !12
  %17 = zext i8 %16 to i32
  %18 = or disjoint i32 %14, %17
  %.not6988 = icmp eq i32 %18, 0
  br i1 %.not6988, label %.thread74, label %.lr.ph91

.lr.ph91:                                         ; preds = %10
  %19 = add nsw i32 %18, -1
  %20 = getelementptr inbounds nuw i8, ptr %0, i64 4
  br label %21

21:                                               ; preds = %.lr.ph91, %41
  %.04990 = phi i32 [ 0, %.lr.ph91 ], [ %.251, %41 ]
  %.05289 = phi i32 [ %19, %.lr.ph91 ], [ %.254, %41 ]
  %22 = add nsw i32 %.04990, %.05289
  %23 = ashr i32 %22, 1
  %24 = and i32 %22, -2
  %25 = sext i32 %24 to i64
  %26 = getelementptr inbounds i8, ptr %20, i64 %25
  %27 = load i8, ptr %26, align 1, !tbaa !12
  %28 = zext i8 %27 to i32
  %29 = shl nuw nsw i32 %28, 8
  %30 = getelementptr inbounds nuw i8, ptr %26, i64 1
  %31 = load i8, ptr %30, align 1, !tbaa !12
  %32 = zext i8 %31 to i32
  %33 = or disjoint i32 %29, %32
  %34 = icmp slt i32 %1, %33
  br i1 %34, label %35, label %37

35:                                               ; preds = %21
  %36 = add nsw i32 %23, -1
  br label %41

37:                                               ; preds = %21
  %38 = icmp samesign ugt i32 %1, %33
  br i1 %38, label %39, label %.thread74

39:                                               ; preds = %37
  %40 = add nsw i32 %23, 1
  br label %41

41:                                               ; preds = %35, %39
  %.254 = phi i32 [ %36, %35 ], [ %.05289, %39 ]
  %.251 = phi i32 [ %.04990, %35 ], [ %40, %39 ]
  %.not69 = icmp sgt i32 %.251, %.254
  br i1 %.not69, label %.thread74, label %21, !llvm.loop !85

42:                                               ; preds = %2
  %43 = getelementptr inbounds nuw i8, ptr %0, i64 2
  %44 = load i8, ptr %43, align 1, !tbaa !12
  %45 = zext i8 %44 to i32
  %46 = shl nuw nsw i32 %45, 8
  %47 = getelementptr inbounds nuw i8, ptr %0, i64 3
  %48 = load i8, ptr %47, align 1, !tbaa !12
  %49 = zext i8 %48 to i32
  %50 = or disjoint i32 %46, %49
  %51 = getelementptr inbounds nuw i8, ptr %0, i64 4
  %.not85 = icmp eq i32 %50, 0
  br i1 %.not85, label %.thread74, label %.lr.ph.preheader

.lr.ph.preheader:                                 ; preds = %42
  %52 = add nsw i32 %50, -1
  br label %.lr.ph

.lr.ph:                                           ; preds = %.lr.ph.preheader, %80
  %.05987 = phi i32 [ %.261, %80 ], [ 0, %.lr.ph.preheader ]
  %.06286 = phi i32 [ %.264, %80 ], [ %52, %.lr.ph.preheader ]
  %53 = add nsw i32 %.05987, %.06286
  %54 = ashr i32 %53, 1
  %55 = mul nsw i32 %54, 6
  %56 = sext i32 %55 to i64
  %57 = getelementptr inbounds i8, ptr %51, i64 %56
  %58 = load i8, ptr %57, align 1, !tbaa !12
  %59 = zext i8 %58 to i32
  %60 = shl nuw nsw i32 %59, 8
  %61 = getelementptr inbounds nuw i8, ptr %57, i64 1
  %62 = load i8, ptr %61, align 1, !tbaa !12
  %63 = zext i8 %62 to i32
  %64 = or disjoint i32 %60, %63
  %65 = icmp slt i32 %1, %64
  br i1 %65, label %66, label %68

66:                                               ; preds = %.lr.ph
  %67 = add nsw i32 %54, -1
  br label %80

68:                                               ; preds = %.lr.ph
  %69 = getelementptr inbounds nuw i8, ptr %57, i64 2
  %70 = load i8, ptr %69, align 1, !tbaa !12
  %71 = zext i8 %70 to i32
  %72 = shl nuw nsw i32 %71, 8
  %73 = getelementptr inbounds nuw i8, ptr %57, i64 3
  %74 = load i8, ptr %73, align 1, !tbaa !12
  %75 = zext i8 %74 to i32
  %76 = or disjoint i32 %72, %75
  %77 = icmp samesign ugt i32 %1, %76
  br i1 %77, label %78, label %81

78:                                               ; preds = %68
  %79 = add nsw i32 %54, 1
  br label %80

80:                                               ; preds = %66, %78
  %.264 = phi i32 [ %67, %66 ], [ %.06286, %78 ]
  %.261 = phi i32 [ %.05987, %66 ], [ %79, %78 ]
  %.not = icmp sgt i32 %.261, %.264
  br i1 %.not, label %.thread74, label %.lr.ph, !llvm.loop !86

81:                                               ; preds = %68
  %82 = getelementptr inbounds nuw i8, ptr %57, i64 4
  %83 = load i8, ptr %82, align 1, !tbaa !12
  %84 = zext i8 %83 to i32
  %85 = shl nuw nsw i32 %84, 8
  %86 = getelementptr inbounds nuw i8, ptr %57, i64 5
  %87 = load i8, ptr %86, align 1, !tbaa !12
  %88 = zext i8 %87 to i32
  %89 = or disjoint i32 %85, %88
  %90 = sub nsw i32 %1, %64
  %91 = add nsw i32 %90, %89
  br label %.thread74

.thread74:                                        ; preds = %80, %37, %41, %42, %10, %81, %2
  %.3 = phi i32 [ %91, %81 ], [ -1, %2 ], [ -1, %10 ], [ -1, %42 ], [ %23, %37 ], [ -1, %41 ], [ -1, %80 ]
  ret i32 %.3
}